ccopy_reg
_reconstructor
p0
(cparclasses
ControlList
p1
c__builtin__
object
p2
Ntp3
Rp4
(dp5
S'ref_beat_period'
p6
g0
(cparclasses
TimeCode
p7
g2
Ntp8
Rp9
(dp10
S'total_frames'
p11
I0
sbsS'scale_factor'
p12
F1.0
sS'eof'
p13
I00
sS'beat_period'
p14
g9
sS'looping'
p15
I00
sS'cur_state'
p16
(lp17
I0
aI0
aI0
aI0
aI0
aI0
aI0
aI0
aI0
aI0
aI0
aI0
aI0
aI0
aI0
aI0
aI0
aI0
aI0
aI0
aI0
aI0
aI0
aI0
aI0
asS'start_time'
p18
g0
(g7
g2
Ntp19
Rp20
(dp21
g11
L39328027044L
sbsS'first_beat'
p22
g0
(g7
g2
Ntp23
Rp24
(dp25
g11
I0
sbsS'next_event'
p26
I8
sS'cleanup'
p27
(lp28
g0
(cparclasses
ControlEvent
p29
g2
Ntp30
Rp31
(dp32
g12
F1.0
sS'level'
p33
I0
sS'sequence'
p34
I0
sS'value'
p35
I0
sS'duration'
p36
g0
(g7
g2
Ntp37
Rp38
(dp39
g11
I0
sbsS'time'
p40
g0
(g7
g2
Ntp41
Rp42
(dp43
g11
I0
sbsS'action'
p44
S'off'
p45
sS'ref_time'
p46
g0
(g7
g2
Ntp47
Rp48
(dp49
g11
I0
sbsS'channel'
p50
I1
sbag0
(g29
g2
Ntp51
Rp52
(dp53
g12
F1.0
sg33
I0
sg34
I0
sg35
I0
sg36
g0
(g7
g2
Ntp54
Rp55
(dp56
g11
I0
sbsg40
g0
(g7
g2
Ntp57
Rp58
(dp59
g11
I0
sbsg44
g45
sg46
g0
(g7
g2
Ntp60
Rp61
(dp62
g11
I0
sbsg50
I2
sbag0
(g29
g2
Ntp63
Rp64
(dp65
g12
F1.0
sg33
I0
sg34
I0
sg35
I0
sg36
g0
(g7
g2
Ntp66
Rp67
(dp68
g11
I0
sbsg40
g0
(g7
g2
Ntp69
Rp70
(dp71
g11
I0
sbsg44
g45
sg46
g0
(g7
g2
Ntp72
Rp73
(dp74
g11
I0
sbsg50
I3
sbag0
(g29
g2
Ntp75
Rp76
(dp77
g12
F1.0
sg33
I0
sg34
I0
sg35
I0
sg36
g0
(g7
g2
Ntp78
Rp79
(dp80
g11
I0
sbsg40
g0
(g7
g2
Ntp81
Rp82
(dp83
g11
I0
sbsg44
g45
sg46
g0
(g7
g2
Ntp84
Rp85
(dp86
g11
I0
sbsg50
I4
sbag0
(g29
g2
Ntp87
Rp88
(dp89
g12
F1.0
sg33
I0
sg34
I0
sg35
I0
sg36
g0
(g7
g2
Ntp90
Rp91
(dp92
g11
I0
sbsg40
g0
(g7
g2
Ntp93
Rp94
(dp95
g11
I0
sbsg44
g45
sg46
g0
(g7
g2
Ntp96
Rp97
(dp98
g11
I0
sbsg50
I5
sbag0
(g29
g2
Ntp99
Rp100
(dp101
g12
F1.0
sg33
I0
sg34
I0
sg35
I0
sg36
g0
(g7
g2
Ntp102
Rp103
(dp104
g11
I0
sbsg40
g0
(g7
g2
Ntp105
Rp106
(dp107
g11
I0
sbsg44
g45
sg46
g0
(g7
g2
Ntp108
Rp109
(dp110
g11
I0
sbsg50
I6
sbag0
(g29
g2
Ntp111
Rp112
(dp113
g12
F1.0
sg33
I0
sg34
I0
sg35
I0
sg36
g0
(g7
g2
Ntp114
Rp115
(dp116
g11
I0
sbsg40
g0
(g7
g2
Ntp117
Rp118
(dp119
g11
I0
sbsg44
g45
sg46
g0
(g7
g2
Ntp120
Rp121
(dp122
g11
I0
sbsg50
I1
sbag0
(g29
g2
Ntp123
Rp124
(dp125
g12
F1.0
sg33
I0
sg34
I0
sg35
I0
sg36
g0
(g7
g2
Ntp126
Rp127
(dp128
g11
I0
sbsg40
g0
(g7
g2
Ntp129
Rp130
(dp131
g11
I0
sbsg44
g45
sg46
g0
(g7
g2
Ntp132
Rp133
(dp134
g11
I0
sbsg50
I2
sbag0
(g29
g2
Ntp135
Rp136
(dp137
g12
F1.0
sg33
I0
sg34
I0
sg35
I0
sg36
g0
(g7
g2
Ntp138
Rp139
(dp140
g11
I0
sbsg40
g0
(g7
g2
Ntp141
Rp142
(dp143
g11
I0
sbsg44
g45
sg46
g0
(g7
g2
Ntp144
Rp145
(dp146
g11
I0
sbsg50
I3
sbag0
(g29
g2
Ntp147
Rp148
(dp149
g12
F1.0
sg33
I0
sg34
I0
sg35
I0
sg36
g0
(g7
g2
Ntp150
Rp151
(dp152
g11
I0
sbsg40
g0
(g7
g2
Ntp153
Rp154
(dp155
g11
I0
sbsg44
g45
sg46
g0
(g7
g2
Ntp156
Rp157
(dp158
g11
I0
sbsg50
I4
sbag0
(g29
g2
Ntp159
Rp160
(dp161
g12
F1.0
sg33
I0
sg34
I0
sg35
I0
sg36
g0
(g7
g2
Ntp162
Rp163
(dp164
g11
I0
sbsg40
g0
(g7
g2
Ntp165
Rp166
(dp167
g11
I0
sbsg44
g45
sg46
g0
(g7
g2
Ntp168
Rp169
(dp170
g11
I0
sbsg50
I5
sbag0
(g29
g2
Ntp171
Rp172
(dp173
g12
F1.0
sg33
I0
sg34
I0
sg35
I0
sg36
g0
(g7
g2
Ntp174
Rp175
(dp176
g11
I0
sbsg40
g0
(g7
g2
Ntp177
Rp178
(dp179
g11
I0
sbsg44
g45
sg46
g0
(g7
g2
Ntp180
Rp181
(dp182
g11
I0
sbsg50
I6
sbag0
(g29
g2
Ntp183
Rp184
(dp185
g12
F1.0
sg33
I0
sg34
I0
sg35
I0
sg36
g0
(g7
g2
Ntp186
Rp187
(dp188
g11
I0
sbsg40
g0
(g7
g2
Ntp189
Rp190
(dp191
g11
I0
sbsg44
g45
sg46
g0
(g7
g2
Ntp192
Rp193
(dp194
g11
I0
sbsg50
I1
sbag0
(g29
g2
Ntp195
Rp196
(dp197
g12
F1.0
sg33
I0
sg34
I0
sg35
I0
sg36
g0
(g7
g2
Ntp198
Rp199
(dp200
g11
I0
sbsg40
g0
(g7
g2
Ntp201
Rp202
(dp203
g11
I0
sbsg44
g45
sg46
g0
(g7
g2
Ntp204
Rp205
(dp206
g11
I0
sbsg50
I2
sbag0
(g29
g2
Ntp207
Rp208
(dp209
g12
F1.0
sg33
I0
sg34
I0
sg35
I0
sg36
g0
(g7
g2
Ntp210
Rp211
(dp212
g11
I0
sbsg40
g0
(g7
g2
Ntp213
Rp214
(dp215
g11
I0
sbsg44
g45
sg46
g0
(g7
g2
Ntp216
Rp217
(dp218
g11
I0
sbsg50
I3
sbag0
(g29
g2
Ntp219
Rp220
(dp221
g12
F1.0
sg33
I0
sg34
I0
sg35
I0
sg36
g0
(g7
g2
Ntp222
Rp223
(dp224
g11
I0
sbsg40
g0
(g7
g2
Ntp225
Rp226
(dp227
g11
I0
sbsg44
g45
sg46
g0
(g7
g2
Ntp228
Rp229
(dp230
g11
I0
sbsg50
I4
sbag0
(g29
g2
Ntp231
Rp232
(dp233
g12
F1.0
sg33
I0
sg34
I0
sg35
I0
sg36
g0
(g7
g2
Ntp234
Rp235
(dp236
g11
I0
sbsg40
g0
(g7
g2
Ntp237
Rp238
(dp239
g11
I0
sbsg44
g45
sg46
g0
(g7
g2
Ntp240
Rp241
(dp242
g11
I0
sbsg50
I5
sbag0
(g29
g2
Ntp243
Rp244
(dp245
g12
F1.0
sg33
I0
sg34
I0
sg35
I0
sg36
g0
(g7
g2
Ntp246
Rp247
(dp248
g11
I0
sbsg40
g0
(g7
g2
Ntp249
Rp250
(dp251
g11
I0
sbsg44
g45
sg46
g0
(g7
g2
Ntp252
Rp253
(dp254
g11
I0
sbsg50
I6
sbasS'deflevel'
p255
I0
sS'ref_first_beat'
p256
g24
sS'defchannel'
p257
I0
sS'scale_pending'
p258
I00
sS'events'
p259
(lp260
g0
(g29
g2
Ntp261
Rp262
(dp263
g12
F1.0
sg33
I0
sg34
I0
sg35
I0
sg36
g0
(g7
g2
Ntp264
Rp265
(dp266
g11
I0
sbsg40
g0
(g7
g2
Ntp267
Rp268
(dp269
g11
I0
sbsg44
g45
sg46
g268
sg50
I0
sbag0
(g29
g2
Ntp270
Rp271
(dp272
g12
F1.0
sg33
I0
sg34
I0
sg35
I0
sg36
g0
(g7
g2
Ntp273
Rp274
(dp275
g11
I0
sbsg40
g0
(g7
g2
Ntp276
Rp277
(dp278
g11
I0
sbsg44
S'on'
p279
sg46
g277
sg50
I1
sbag0
(g29
g2
Ntp280
Rp281
(dp282
g12
F1.0
sg33
I0
sg34
I0
sg35
I0
sg36
g0
(g7
g2
Ntp283
Rp284
(dp285
g11
I0
sbsg40
g0
(g7
g2
Ntp286
Rp287
(dp288
g11
I0
sbsg44
g279
sg46
g287
sg50
I2
sbag0
(g29
g2
Ntp289
Rp290
(dp291
g12
F1.0
sg33
I0
sg34
I0
sg35
I0
sg36
g0
(g7
g2
Ntp292
Rp293
(dp294
g11
I0
sbsg40
g0
(g7
g2
Ntp295
Rp296
(dp297
g11
I0
sbsg44
g279
sg46
g296
sg50
I3
sbag0
(g29
g2
Ntp298
Rp299
(dp300
g12
F1.0
sg33
I0
sg34
I0
sg35
I0
sg36
g0
(g7
g2
Ntp301
Rp302
(dp303
g11
I0
sbsg40
g0
(g7
g2
Ntp304
Rp305
(dp306
g11
I0
sbsg44
g279
sg46
g305
sg50
I4
sbag0
(g29
g2
Ntp307
Rp308
(dp309
g12
F1.0
sg33
I0
sg34
I0
sg35
I0
sg36
g0
(g7
g2
Ntp310
Rp311
(dp312
g11
I0
sbsg40
g0
(g7
g2
Ntp313
Rp314
(dp315
g11
I0
sbsg44
g279
sg46
g314
sg50
I5
sbag0
(g29
g2
Ntp316
Rp317
(dp318
g12
F1.0
sg33
I0
sg34
I0
sg35
I0
sg36
g0
(g7
g2
Ntp319
Rp320
(dp321
g11
I0
sbsg40
g0
(g7
g2
Ntp322
Rp323
(dp324
g11
I0
sbsg44
g279
sg46
g323
sg50
I6
sbag0
(g29
g2
Ntp325
Rp326
(dp327
g12
F1.0
sg33
I0
sg34
I0
sg35
I0
sg36
g0
(g7
g2
Ntp328
Rp329
(dp330
g11
I0
sbsg40
g0
(g7
g2
Ntp331
Rp332
(dp333
g11
I25
sbsg44
g45
sg46
g332
sg50
I0
sbasS'name'
p334
Vbang
p335
sb.