ccopy_reg
_reconstructor
p0
(cparclasses
ControlList
p1
c__builtin__
object
p2
Ntp3
Rp4
(dp5
S'ref_beat_period'
p6
g0
(cparclasses
TimeCode
p7
g2
Ntp8
Rp9
(dp10
S'total_frames'
p11
I0
sbsS'scale_factor'
p12
F1.0
sS'eof'
p13
I00
sS'beat_period'
p14
g9
sS'looping'
p15
I00
sS'cur_state'
p16
(lp17
I0
aI0
aI0
aI0
aI0
aI0
aI0
aI0
aI0
aI0
aI0
aI0
aI0
aI0
aI0
aI0
aI0
aI0
aI0
aI0
aI0
aI0
aI0
aI0
aI0
asS'start_time'
p18
g0
(g7
g2
Ntp19
Rp20
(dp21
g11
L39341932491L
sbsS'first_beat'
p22
g0
(g7
g2
Ntp23
Rp24
(dp25
g11
I0
sbsS'next_event'
p26
I148
sS'cleanup'
p27
(lp28
sS'deflevel'
p29
I0
sS'ref_first_beat'
p30
g24
sS'defchannel'
p31
I0
sS'scale_pending'
p32
I00
sS'events'
p33
(lp34
g0
(cparclasses
ControlEvent
p35
g2
Ntp36
Rp37
(dp38
g12
F1.0
sS'level'
p39
I0
sS'sequence'
p40
I0
sS'value'
p41
I0
sS'duration'
p42
g0
(g7
g2
Ntp43
Rp44
(dp45
g11
I0
sbsS'time'
p46
g0
(g7
g2
Ntp47
Rp48
(dp49
g11
I0
sbsS'action'
p50
S'off'
p51
sS'ref_time'
p52
g48
sS'channel'
p53
I0
sbag0
(g35
g2
Ntp54
Rp55
(dp56
g12
F1.0
sg39
I0
sg40
I0
sg41
I0
sg42
g0
(g7
g2
Ntp57
Rp58
(dp59
g11
I0
sbsg46
g0
(g7
g2
Ntp60
Rp61
(dp62
g11
I0
sbsg50
S'on'
p63
sg52
g61
sg53
I6
sbag0
(g35
g2
Ntp64
Rp65
(dp66
g12
F1.0
sg39
I0
sg40
I0
sg41
I0
sg42
g0
(g7
g2
Ntp67
Rp68
(dp69
g11
I0
sbsg46
g0
(g7
g2
Ntp70
Rp71
(dp72
g11
I0
sbsg50
g63
sg52
g71
sg53
I18
sbag0
(g35
g2
Ntp73
Rp74
(dp75
g12
F1.0
sg39
I0
sg40
I0
sg41
I0
sg42
g0
(g7
g2
Ntp76
Rp77
(dp78
g11
I0
sbsg46
g0
(g7
g2
Ntp79
Rp80
(dp81
g11
I0
sbsg50
g63
sg52
g80
sg53
I12
sbag0
(g35
g2
Ntp82
Rp83
(dp84
g12
F1.0
sg39
I0
sg40
I0
sg41
I0
sg42
g0
(g7
g2
Ntp85
Rp86
(dp87
g11
I0
sbsg46
g0
(g7
g2
Ntp88
Rp89
(dp90
g11
I2
sbsg50
g51
sg52
g89
sg53
I12
sbag0
(g35
g2
Ntp91
Rp92
(dp93
g12
F1.0
sg39
I0
sg40
I0
sg41
I0
sg42
g0
(g7
g2
Ntp94
Rp95
(dp96
g11
I0
sbsg46
g0
(g7
g2
Ntp97
Rp98
(dp99
g11
I2
sbsg50
g63
sg52
g98
sg53
I12
sbag0
(g35
g2
Ntp100
Rp101
(dp102
g12
F1.0
sg39
I0
sg40
I0
sg41
I0
sg42
g0
(g7
g2
Ntp103
Rp104
(dp105
g11
I0
sbsg46
g0
(g7
g2
Ntp106
Rp107
(dp108
g11
I3
sbsg50
g63
sg52
g107
sg53
I17
sbag0
(g35
g2
Ntp109
Rp110
(dp111
g12
F1.0
sg39
I0
sg40
I0
sg41
I0
sg42
g0
(g7
g2
Ntp112
Rp113
(dp114
g11
I0
sbsg46
g0
(g7
g2
Ntp115
Rp116
(dp117
g11
I3
sbsg50
g63
sg52
g116
sg53
I5
sbag0
(g35
g2
Ntp118
Rp119
(dp120
g12
F1.0
sg39
I0
sg40
I0
sg41
I0
sg42
g0
(g7
g2
Ntp121
Rp122
(dp123
g11
I0
sbsg46
g0
(g7
g2
Ntp124
Rp125
(dp126
g11
I4
sbsg50
g63
sg52
g125
sg53
I16
sbag0
(g35
g2
Ntp127
Rp128
(dp129
g12
F1.0
sg39
I0
sg40
I0
sg41
I0
sg42
g0
(g7
g2
Ntp130
Rp131
(dp132
g11
I0
sbsg46
g0
(g7
g2
Ntp133
Rp134
(dp135
g11
I4
sbsg50
g63
sg52
g134
sg53
I11
sbag0
(g35
g2
Ntp136
Rp137
(dp138
g12
F1.0
sg39
I0
sg40
I0
sg41
I0
sg42
g0
(g7
g2
Ntp139
Rp140
(dp141
g11
I0
sbsg46
g0
(g7
g2
Ntp142
Rp143
(dp144
g11
I4
sbsg50
g51
sg52
g143
sg53
I12
sbag0
(g35
g2
Ntp145
Rp146
(dp147
g12
F1.0
sg39
I0
sg40
I0
sg41
I0
sg42
g0
(g7
g2
Ntp148
Rp149
(dp150
g11
I0
sbsg46
g0
(g7
g2
Ntp151
Rp152
(dp153
g11
I5
sbsg50
g51
sg52
g152
sg53
I17
sbag0
(g35
g2
Ntp154
Rp155
(dp156
g12
F1.0
sg39
I0
sg40
I0
sg41
I0
sg42
g0
(g7
g2
Ntp157
Rp158
(dp159
g11
I0
sbsg46
g0
(g7
g2
Ntp160
Rp161
(dp162
g11
I5
sbsg50
g51
sg52
g161
sg53
I6
sbag0
(g35
g2
Ntp163
Rp164
(dp165
g12
F1.0
sg39
I0
sg40
I0
sg41
I0
sg42
g0
(g7
g2
Ntp166
Rp167
(dp168
g11
I0
sbsg46
g0
(g7
g2
Ntp169
Rp170
(dp171
g11
I6
sbsg50
g63
sg52
g170
sg53
I4
sbag0
(g35
g2
Ntp172
Rp173
(dp174
g12
F1.0
sg39
I0
sg40
I0
sg41
I0
sg42
g0
(g7
g2
Ntp175
Rp176
(dp177
g11
I0
sbsg46
g0
(g7
g2
Ntp178
Rp179
(dp180
g11
I6
sbsg50
g63
sg52
g179
sg53
I17
sbag0
(g35
g2
Ntp181
Rp182
(dp183
g12
F1.0
sg39
I0
sg40
I0
sg41
I0
sg42
g0
(g7
g2
Ntp184
Rp185
(dp186
g11
I0
sbsg46
g0
(g7
g2
Ntp187
Rp188
(dp189
g11
I6
sbsg50
g63
sg52
g188
sg53
I6
sbag0
(g35
g2
Ntp190
Rp191
(dp192
g12
F1.0
sg39
I0
sg40
I0
sg41
I0
sg42
g0
(g7
g2
Ntp193
Rp194
(dp195
g11
I0
sbsg46
g0
(g7
g2
Ntp196
Rp197
(dp198
g11
I6
sbsg50
g51
sg52
g197
sg53
I5
sbag0
(g35
g2
Ntp199
Rp200
(dp201
g12
F1.0
sg39
I0
sg40
I0
sg41
I0
sg42
g0
(g7
g2
Ntp202
Rp203
(dp204
g11
I0
sbsg46
g0
(g7
g2
Ntp205
Rp206
(dp207
g11
I7
sbsg50
g51
sg52
g206
sg53
I17
sbag0
(g35
g2
Ntp208
Rp209
(dp210
g12
F1.0
sg39
I0
sg40
I0
sg41
I0
sg42
g0
(g7
g2
Ntp211
Rp212
(dp213
g11
I0
sbsg46
g0
(g7
g2
Ntp214
Rp215
(dp216
g11
I7
sbsg50
g63
sg52
g215
sg53
I17
sbag0
(g35
g2
Ntp217
Rp218
(dp219
g12
F1.0
sg39
I0
sg40
I0
sg41
I0
sg42
g0
(g7
g2
Ntp220
Rp221
(dp222
g11
I0
sbsg46
g0
(g7
g2
Ntp223
Rp224
(dp225
g11
I7
sbsg50
g51
sg52
g224
sg53
I4
sbag0
(g35
g2
Ntp226
Rp227
(dp228
g12
F1.0
sg39
I0
sg40
I0
sg41
I0
sg42
g0
(g7
g2
Ntp229
Rp230
(dp231
g11
I0
sbsg46
g0
(g7
g2
Ntp232
Rp233
(dp234
g11
I7
sbsg50
g51
sg52
g233
sg53
I11
sbag0
(g35
g2
Ntp235
Rp236
(dp237
g12
F1.0
sg39
I0
sg40
I0
sg41
I0
sg42
g0
(g7
g2
Ntp238
Rp239
(dp240
g11
I0
sbsg46
g0
(g7
g2
Ntp241
Rp242
(dp243
g11
I7
sbsg50
g63
sg52
g242
sg53
I12
sbag0
(g35
g2
Ntp244
Rp245
(dp246
g12
F1.0
sg39
I0
sg40
I0
sg41
I0
sg42
g0
(g7
g2
Ntp247
Rp248
(dp249
g11
I0
sbsg46
g0
(g7
g2
Ntp250
Rp251
(dp252
g11
I7
sbsg50
g51
sg52
g251
sg53
I18
sbag0
(g35
g2
Ntp253
Rp254
(dp255
g12
F1.0
sg39
I0
sg40
I0
sg41
I0
sg42
g0
(g7
g2
Ntp256
Rp257
(dp258
g11
I0
sbsg46
g0
(g7
g2
Ntp259
Rp260
(dp261
g11
I8
sbsg50
g63
sg52
g260
sg53
I5
sbag0
(g35
g2
Ntp262
Rp263
(dp264
g12
F1.0
sg39
I0
sg40
I0
sg41
I0
sg42
g0
(g7
g2
Ntp265
Rp266
(dp267
g11
I0
sbsg46
g0
(g7
g2
Ntp268
Rp269
(dp270
g11
I8
sbsg50
g51
sg52
g269
sg53
I17
sbag0
(g35
g2
Ntp271
Rp272
(dp273
g12
F1.0
sg39
I0
sg40
I0
sg41
I0
sg42
g0
(g7
g2
Ntp274
Rp275
(dp276
g11
I0
sbsg46
g0
(g7
g2
Ntp277
Rp278
(dp279
g11
I8
sbsg50
g51
sg52
g278
sg53
I12
sbag0
(g35
g2
Ntp280
Rp281
(dp282
g12
F1.0
sg39
I0
sg40
I0
sg41
I0
sg42
g0
(g7
g2
Ntp283
Rp284
(dp285
g11
I0
sbsg46
g0
(g7
g2
Ntp286
Rp287
(dp288
g11
I9
sbsg50
g63
sg52
g287
sg53
I11
sbag0
(g35
g2
Ntp289
Rp290
(dp291
g12
F1.0
sg39
I0
sg40
I0
sg41
I0
sg42
g0
(g7
g2
Ntp292
Rp293
(dp294
g11
I0
sbsg46
g0
(g7
g2
Ntp295
Rp296
(dp297
g11
I9
sbsg50
g51
sg52
g296
sg53
I5
sbag0
(g35
g2
Ntp298
Rp299
(dp300
g12
F1.0
sg39
I0
sg40
I0
sg41
I0
sg42
g0
(g7
g2
Ntp301
Rp302
(dp303
g11
I0
sbsg46
g0
(g7
g2
Ntp304
Rp305
(dp306
g11
I9
sbsg50
g51
sg52
g305
sg53
I16
sbag0
(g35
g2
Ntp307
Rp308
(dp309
g12
F1.0
sg39
I0
sg40
I0
sg41
I0
sg42
g0
(g7
g2
Ntp310
Rp311
(dp312
g11
I0
sbsg46
g0
(g7
g2
Ntp313
Rp314
(dp315
g11
I9
sbsg50
g63
sg52
g314
sg53
I5
sbag0
(g35
g2
Ntp316
Rp317
(dp318
g12
F1.0
sg39
I0
sg40
I0
sg41
I0
sg42
g0
(g7
g2
Ntp319
Rp320
(dp321
g11
I0
sbsg46
g0
(g7
g2
Ntp322
Rp323
(dp324
g11
I9
sbsg50
g63
sg52
g323
sg53
I17
sbag0
(g35
g2
Ntp325
Rp326
(dp327
g12
F1.0
sg39
I0
sg40
I0
sg41
I0
sg42
g0
(g7
g2
Ntp328
Rp329
(dp330
g11
I0
sbsg46
g0
(g7
g2
Ntp331
Rp332
(dp333
g11
I9
sbsg50
g63
sg52
g332
sg53
I12
sbag0
(g35
g2
Ntp334
Rp335
(dp336
g12
F1.0
sg39
I0
sg40
I0
sg41
I0
sg42
g0
(g7
g2
Ntp337
Rp338
(dp339
g11
I0
sbsg46
g0
(g7
g2
Ntp340
Rp341
(dp342
g11
I10
sbsg50
g51
sg52
g341
sg53
I11
sbag0
(g35
g2
Ntp343
Rp344
(dp345
g12
F1.0
sg39
I0
sg40
I0
sg41
I0
sg42
g0
(g7
g2
Ntp346
Rp347
(dp348
g11
I0
sbsg46
g0
(g7
g2
Ntp349
Rp350
(dp351
g11
I10
sbsg50
g51
sg52
g350
sg53
I5
sbag0
(g35
g2
Ntp352
Rp353
(dp354
g12
F1.0
sg39
I0
sg40
I0
sg41
I0
sg42
g0
(g7
g2
Ntp355
Rp356
(dp357
g11
I0
sbsg46
g0
(g7
g2
Ntp358
Rp359
(dp360
g11
I10
sbsg50
g51
sg52
g359
sg53
I6
sbag0
(g35
g2
Ntp361
Rp362
(dp363
g12
F1.0
sg39
I0
sg40
I0
sg41
I0
sg42
g0
(g7
g2
Ntp364
Rp365
(dp366
g11
I0
sbsg46
g0
(g7
g2
Ntp367
Rp368
(dp369
g11
I10
sbsg50
g63
sg52
g368
sg53
I15
sbag0
(g35
g2
Ntp370
Rp371
(dp372
g12
F1.0
sg39
I0
sg40
I0
sg41
I0
sg42
g0
(g7
g2
Ntp373
Rp374
(dp375
g11
I0
sbsg46
g0
(g7
g2
Ntp376
Rp377
(dp378
g11
I10
sbsg50
g63
sg52
g377
sg53
I10
sbag0
(g35
g2
Ntp379
Rp380
(dp381
g12
F1.0
sg39
I0
sg40
I0
sg41
I0
sg42
g0
(g7
g2
Ntp382
Rp383
(dp384
g11
I0
sbsg46
g0
(g7
g2
Ntp385
Rp386
(dp387
g11
I10
sbsg50
g63
sg52
g386
sg53
I16
sbag0
(g35
g2
Ntp388
Rp389
(dp390
g12
F1.0
sg39
I0
sg40
I0
sg41
I0
sg42
g0
(g7
g2
Ntp391
Rp392
(dp393
g11
I0
sbsg46
g0
(g7
g2
Ntp394
Rp395
(dp396
g11
I11
sbsg50
g63
sg52
g395
sg53
I4
sbag0
(g35
g2
Ntp397
Rp398
(dp399
g12
F1.0
sg39
I0
sg40
I0
sg41
I0
sg42
g0
(g7
g2
Ntp400
Rp401
(dp402
g11
I0
sbsg46
g0
(g7
g2
Ntp403
Rp404
(dp405
g11
I11
sbsg50
g51
sg52
g404
sg53
I17
sbag0
(g35
g2
Ntp406
Rp407
(dp408
g12
F1.0
sg39
I0
sg40
I0
sg41
I0
sg42
g0
(g7
g2
Ntp409
Rp410
(dp411
g11
I0
sbsg46
g0
(g7
g2
Ntp412
Rp413
(dp414
g11
I11
sbsg50
g51
sg52
g413
sg53
I12
sbag0
(g35
g2
Ntp415
Rp416
(dp417
g12
F1.0
sg39
I0
sg40
I0
sg41
I0
sg42
g0
(g7
g2
Ntp418
Rp419
(dp420
g11
I0
sbsg46
g0
(g7
g2
Ntp421
Rp422
(dp423
g11
I12
sbsg50
g63
sg52
g422
sg53
I12
sbag0
(g35
g2
Ntp424
Rp425
(dp426
g12
F1.0
sg39
I0
sg40
I0
sg41
I0
sg42
g0
(g7
g2
Ntp427
Rp428
(dp429
g11
I0
sbsg46
g0
(g7
g2
Ntp430
Rp431
(dp432
g11
I13
sbsg50
g51
sg52
g431
sg53
I10
sbag0
(g35
g2
Ntp433
Rp434
(dp435
g12
F1.0
sg39
I0
sg40
I0
sg41
I0
sg42
g0
(g7
g2
Ntp436
Rp437
(dp438
g11
I0
sbsg46
g0
(g7
g2
Ntp439
Rp440
(dp441
g11
I13
sbsg50
g63
sg52
g440
sg53
I6
sbag0
(g35
g2
Ntp442
Rp443
(dp444
g12
F1.0
sg39
I0
sg40
I0
sg41
I0
sg42
g0
(g7
g2
Ntp445
Rp446
(dp447
g11
I0
sbsg46
g0
(g7
g2
Ntp448
Rp449
(dp450
g11
I13
sbsg50
g63
sg52
g449
sg53
I3
sbag0
(g35
g2
Ntp451
Rp452
(dp453
g12
F1.0
sg39
I0
sg40
I0
sg41
I0
sg42
g0
(g7
g2
Ntp454
Rp455
(dp456
g11
I0
sbsg46
g0
(g7
g2
Ntp457
Rp458
(dp459
g11
I14
sbsg50
g63
sg52
g458
sg53
I2
sbag0
(g35
g2
Ntp460
Rp461
(dp462
g12
F1.0
sg39
I0
sg40
I0
sg41
I0
sg42
g0
(g7
g2
Ntp463
Rp464
(dp465
g11
I0
sbsg46
g0
(g7
g2
Ntp466
Rp467
(dp468
g11
I14
sbsg50
g51
sg52
g467
sg53
I15
sbag0
(g35
g2
Ntp469
Rp470
(dp471
g12
F1.0
sg39
I0
sg40
I0
sg41
I0
sg42
g0
(g7
g2
Ntp472
Rp473
(dp474
g11
I0
sbsg46
g0
(g7
g2
Ntp475
Rp476
(dp477
g11
I14
sbsg50
g51
sg52
g476
sg53
I2
sbag0
(g35
g2
Ntp478
Rp479
(dp480
g12
F1.0
sg39
I0
sg40
I0
sg41
I0
sg42
g0
(g7
g2
Ntp481
Rp482
(dp483
g11
I0
sbsg46
g0
(g7
g2
Ntp484
Rp485
(dp486
g11
I14
sbsg50
g51
sg52
g485
sg53
I3
sbag0
(g35
g2
Ntp487
Rp488
(dp489
g12
F1.0
sg39
I0
sg40
I0
sg41
I0
sg42
g0
(g7
g2
Ntp490
Rp491
(dp492
g11
I0
sbsg46
g0
(g7
g2
Ntp493
Rp494
(dp495
g11
I14
sbsg50
g63
sg52
g494
sg53
I10
sbag0
(g35
g2
Ntp496
Rp497
(dp498
g12
F1.0
sg39
I0
sg40
I0
sg41
I0
sg42
g0
(g7
g2
Ntp499
Rp500
(dp501
g11
I0
sbsg46
g0
(g7
g2
Ntp502
Rp503
(dp504
g11
I14
sbsg50
g51
sg52
g503
sg53
I6
sbag0
(g35
g2
Ntp505
Rp506
(dp507
g12
F1.0
sg39
I0
sg40
I0
sg41
I0
sg42
g0
(g7
g2
Ntp508
Rp509
(dp510
g11
I0
sbsg46
g0
(g7
g2
Ntp511
Rp512
(dp513
g11
I14
sbsg50
g63
sg52
g512
sg53
I15
sbag0
(g35
g2
Ntp514
Rp515
(dp516
g12
F1.0
sg39
I0
sg40
I0
sg41
I0
sg42
g0
(g7
g2
Ntp517
Rp518
(dp519
g11
I0
sbsg46
g0
(g7
g2
Ntp520
Rp521
(dp522
g11
I15
sbsg50
g51
sg52
g521
sg53
I10
sbag0
(g35
g2
Ntp523
Rp524
(dp525
g12
F1.0
sg39
I0
sg40
I0
sg41
I0
sg42
g0
(g7
g2
Ntp526
Rp527
(dp528
g11
I0
sbsg46
g0
(g7
g2
Ntp529
Rp530
(dp531
g11
I15
sbsg50
g63
sg52
g530
sg53
I3
sbag0
(g35
g2
Ntp532
Rp533
(dp534
g12
F1.0
sg39
I0
sg40
I0
sg41
I0
sg42
g0
(g7
g2
Ntp535
Rp536
(dp537
g11
I0
sbsg46
g0
(g7
g2
Ntp538
Rp539
(dp540
g11
I15
sbsg50
g51
sg52
g539
sg53
I16
sbag0
(g35
g2
Ntp541
Rp542
(dp543
g12
F1.0
sg39
I0
sg40
I0
sg41
I0
sg42
g0
(g7
g2
Ntp544
Rp545
(dp546
g11
I0
sbsg46
g0
(g7
g2
Ntp547
Rp548
(dp549
g11
I15
sbsg50
g63
sg52
g548
sg53
I13
sbag0
(g35
g2
Ntp550
Rp551
(dp552
g12
F1.0
sg39
I0
sg40
I0
sg41
I0
sg42
g0
(g7
g2
Ntp553
Rp554
(dp555
g11
I0
sbsg46
g0
(g7
g2
Ntp556
Rp557
(dp558
g11
I15
sbsg50
g63
sg52
g557
sg53
I2
sbag0
(g35
g2
Ntp559
Rp560
(dp561
g12
F1.0
sg39
I0
sg40
I0
sg41
I0
sg42
g0
(g7
g2
Ntp562
Rp563
(dp564
g11
I0
sbsg46
g0
(g7
g2
Ntp565
Rp566
(dp567
g11
I15
sbsg50
g51
sg52
g566
sg53
I15
sbag0
(g35
g2
Ntp568
Rp569
(dp570
g12
F1.0
sg39
I0
sg40
I0
sg41
I0
sg42
g0
(g7
g2
Ntp571
Rp572
(dp573
g11
I0
sbsg46
g0
(g7
g2
Ntp574
Rp575
(dp576
g11
I15
sbsg50
g63
sg52
g575
sg53
I5
sbag0
(g35
g2
Ntp577
Rp578
(dp579
g12
F1.0
sg39
I0
sg40
I0
sg41
I0
sg42
g0
(g7
g2
Ntp580
Rp581
(dp582
g11
I0
sbsg46
g0
(g7
g2
Ntp583
Rp584
(dp585
g11
I15
sbsg50
g51
sg52
g584
sg53
I5
sbag0
(g35
g2
Ntp586
Rp587
(dp588
g12
F1.0
sg39
I0
sg40
I0
sg41
I0
sg42
g0
(g7
g2
Ntp589
Rp590
(dp591
g11
I0
sbsg46
g0
(g7
g2
Ntp592
Rp593
(dp594
g11
I16
sbsg50
g51
sg52
g593
sg53
I13
sbag0
(g35
g2
Ntp595
Rp596
(dp597
g12
F1.0
sg39
I0
sg40
I0
sg41
I0
sg42
g0
(g7
g2
Ntp598
Rp599
(dp600
g11
I0
sbsg46
g0
(g7
g2
Ntp601
Rp602
(dp603
g11
I16
sbsg50
g63
sg52
g602
sg53
I10
sbag0
(g35
g2
Ntp604
Rp605
(dp606
g12
F1.0
sg39
I0
sg40
I0
sg41
I0
sg42
g0
(g7
g2
Ntp607
Rp608
(dp609
g11
I0
sbsg46
g0
(g7
g2
Ntp610
Rp611
(dp612
g11
I16
sbsg50
g63
sg52
g611
sg53
I9
sbag0
(g35
g2
Ntp613
Rp614
(dp615
g12
F1.0
sg39
I0
sg40
I0
sg41
I0
sg42
g0
(g7
g2
Ntp616
Rp617
(dp618
g11
I0
sbsg46
g0
(g7
g2
Ntp619
Rp620
(dp621
g11
I16
sbsg50
g51
sg52
g620
sg53
I3
sbag0
(g35
g2
Ntp622
Rp623
(dp624
g12
F1.0
sg39
I0
sg40
I0
sg41
I0
sg42
g0
(g7
g2
Ntp625
Rp626
(dp627
g11
I0
sbsg46
g0
(g7
g2
Ntp628
Rp629
(dp630
g11
I16
sbsg50
g63
sg52
g629
sg53
I8
sbag0
(g35
g2
Ntp631
Rp632
(dp633
g12
F1.0
sg39
I0
sg40
I0
sg41
I0
sg42
g0
(g7
g2
Ntp634
Rp635
(dp636
g11
I0
sbsg46
g0
(g7
g2
Ntp637
Rp638
(dp639
g11
I16
sbsg50
g63
sg52
g638
sg53
I15
sbag0
(g35
g2
Ntp640
Rp641
(dp642
g12
F1.0
sg39
I0
sg40
I0
sg41
I0
sg42
g0
(g7
g2
Ntp643
Rp644
(dp645
g11
I0
sbsg46
g0
(g7
g2
Ntp646
Rp647
(dp648
g11
I16
sbsg50
g63
sg52
g647
sg53
I6
sbag0
(g35
g2
Ntp649
Rp650
(dp651
g12
F1.0
sg39
I0
sg40
I0
sg41
I0
sg42
g0
(g7
g2
Ntp652
Rp653
(dp654
g11
I0
sbsg46
g0
(g7
g2
Ntp655
Rp656
(dp657
g11
I17
sbsg50
g63
sg52
g656
sg53
I5
sbag0
(g35
g2
Ntp658
Rp659
(dp660
g12
F1.0
sg39
I0
sg40
I0
sg41
I0
sg42
g0
(g7
g2
Ntp661
Rp662
(dp663
g11
I0
sbsg46
g0
(g7
g2
Ntp664
Rp665
(dp666
g11
I17
sbsg50
g51
sg52
g665
sg53
I2
sbag0
(g35
g2
Ntp667
Rp668
(dp669
g12
F1.0
sg39
I0
sg40
I0
sg41
I0
sg42
g0
(g7
g2
Ntp670
Rp671
(dp672
g11
I0
sbsg46
g0
(g7
g2
Ntp673
Rp674
(dp675
g11
I17
sbsg50
g51
sg52
g674
sg53
I10
sbag0
(g35
g2
Ntp676
Rp677
(dp678
g12
F1.0
sg39
I0
sg40
I0
sg41
I0
sg42
g0
(g7
g2
Ntp679
Rp680
(dp681
g11
I0
sbsg46
g0
(g7
g2
Ntp682
Rp683
(dp684
g11
I17
sbsg50
g51
sg52
g683
sg53
I12
sbag0
(g35
g2
Ntp685
Rp686
(dp687
g12
F1.0
sg39
I0
sg40
I0
sg41
I0
sg42
g0
(g7
g2
Ntp688
Rp689
(dp690
g11
I0
sbsg46
g0
(g7
g2
Ntp691
Rp692
(dp693
g11
I17
sbsg50
g63
sg52
g692
sg53
I1
sbag0
(g35
g2
Ntp694
Rp695
(dp696
g12
F1.0
sg39
I0
sg40
I0
sg41
I0
sg42
g0
(g7
g2
Ntp697
Rp698
(dp699
g11
I0
sbsg46
g0
(g7
g2
Ntp700
Rp701
(dp702
g11
I17
sbsg50
g51
sg52
g701
sg53
I8
sbag0
(g35
g2
Ntp703
Rp704
(dp705
g12
F1.0
sg39
I0
sg40
I0
sg41
I0
sg42
g0
(g7
g2
Ntp706
Rp707
(dp708
g11
I0
sbsg46
g0
(g7
g2
Ntp709
Rp710
(dp711
g11
I18
sbsg50
g51
sg52
g710
sg53
I6
sbag0
(g35
g2
Ntp712
Rp713
(dp714
g12
F1.0
sg39
I0
sg40
I0
sg41
I0
sg42
g0
(g7
g2
Ntp715
Rp716
(dp717
g11
I0
sbsg46
g0
(g7
g2
Ntp718
Rp719
(dp720
g11
I18
sbsg50
g63
sg52
g719
sg53
I6
sbag0
(g35
g2
Ntp721
Rp722
(dp723
g12
F1.0
sg39
I0
sg40
I0
sg41
I0
sg42
g0
(g7
g2
Ntp724
Rp725
(dp726
g11
I0
sbsg46
g0
(g7
g2
Ntp727
Rp728
(dp729
g11
I18
sbsg50
g51
sg52
g728
sg53
I1
sbag0
(g35
g2
Ntp730
Rp731
(dp732
g12
F1.0
sg39
I0
sg40
I0
sg41
I0
sg42
g0
(g7
g2
Ntp733
Rp734
(dp735
g11
I0
sbsg46
g0
(g7
g2
Ntp736
Rp737
(dp738
g11
I18
sbsg50
g63
sg52
g737
sg53
I3
sbag0
(g35
g2
Ntp739
Rp740
(dp741
g12
F1.0
sg39
I0
sg40
I0
sg41
I0
sg42
g0
(g7
g2
Ntp742
Rp743
(dp744
g11
I0
sbsg46
g0
(g7
g2
Ntp745
Rp746
(dp747
g11
I19
sbsg50
g63
sg52
g746
sg53
I7
sbag0
(g35
g2
Ntp748
Rp749
(dp750
g12
F1.0
sg39
I0
sg40
I0
sg41
I0
sg42
g0
(g7
g2
Ntp751
Rp752
(dp753
g11
I0
sbsg46
g0
(g7
g2
Ntp754
Rp755
(dp756
g11
I19
sbsg50
g63
sg52
g755
sg53
I16
sbag0
(g35
g2
Ntp757
Rp758
(dp759
g12
F1.0
sg39
I0
sg40
I0
sg41
I0
sg42
g0
(g7
g2
Ntp760
Rp761
(dp762
g11
I0
sbsg46
g0
(g7
g2
Ntp763
Rp764
(dp765
g11
I19
sbsg50
g51
sg52
g764
sg53
I6
sbag0
(g35
g2
Ntp766
Rp767
(dp768
g12
F1.0
sg39
I0
sg40
I0
sg41
I0
sg42
g0
(g7
g2
Ntp769
Rp770
(dp771
g11
I0
sbsg46
g0
(g7
g2
Ntp772
Rp773
(dp774
g11
I19
sbsg50
g51
sg52
g773
sg53
I3
sbag0
(g35
g2
Ntp775
Rp776
(dp777
g12
F1.0
sg39
I0
sg40
I0
sg41
I0
sg42
g0
(g7
g2
Ntp778
Rp779
(dp780
g11
I0
sbsg46
g0
(g7
g2
Ntp781
Rp782
(dp783
g11
I19
sbsg50
g63
sg52
g782
sg53
I13
sbag0
(g35
g2
Ntp784
Rp785
(dp786
g12
F1.0
sg39
I0
sg40
I0
sg41
I0
sg42
g0
(g7
g2
Ntp787
Rp788
(dp789
g11
I0
sbsg46
g0
(g7
g2
Ntp790
Rp791
(dp792
g11
I19
sbsg50
g63
sg52
g791
sg53
I14
sbag0
(g35
g2
Ntp793
Rp794
(dp795
g12
F1.0
sg39
I0
sg40
I0
sg41
I0
sg42
g0
(g7
g2
Ntp796
Rp797
(dp798
g11
I0
sbsg46
g0
(g7
g2
Ntp799
Rp800
(dp801
g11
I19
sbsg50
g51
sg52
g800
sg53
I5
sbag0
(g35
g2
Ntp802
Rp803
(dp804
g12
F1.0
sg39
I0
sg40
I0
sg41
I0
sg42
g0
(g7
g2
Ntp805
Rp806
(dp807
g11
I0
sbsg46
g0
(g7
g2
Ntp808
Rp809
(dp810
g11
I20
sbsg50
g63
sg52
g809
sg53
I5
sbag0
(g35
g2
Ntp811
Rp812
(dp813
g12
F1.0
sg39
I0
sg40
I0
sg41
I0
sg42
g0
(g7
g2
Ntp814
Rp815
(dp816
g11
I0
sbsg46
g0
(g7
g2
Ntp817
Rp818
(dp819
g11
I20
sbsg50
g51
sg52
g818
sg53
I16
sbag0
(g35
g2
Ntp820
Rp821
(dp822
g12
F1.0
sg39
I0
sg40
I0
sg41
I0
sg42
g0
(g7
g2
Ntp823
Rp824
(dp825
g11
I0
sbsg46
g0
(g7
g2
Ntp826
Rp827
(dp828
g11
I21
sbsg50
g63
sg52
g827
sg53
I10
sbag0
(g35
g2
Ntp829
Rp830
(dp831
g12
F1.0
sg39
I0
sg40
I0
sg41
I0
sg42
g0
(g7
g2
Ntp832
Rp833
(dp834
g11
I0
sbsg46
g0
(g7
g2
Ntp835
Rp836
(dp837
g11
I21
sbsg50
g51
sg52
g836
sg53
I4
sbag0
(g35
g2
Ntp838
Rp839
(dp840
g12
F1.0
sg39
I0
sg40
I0
sg41
I0
sg42
g0
(g7
g2
Ntp841
Rp842
(dp843
g11
I0
sbsg46
g0
(g7
g2
Ntp844
Rp845
(dp846
g11
I21
sbsg50
g51
sg52
g845
sg53
I7
sbag0
(g35
g2
Ntp847
Rp848
(dp849
g12
F1.0
sg39
I0
sg40
I0
sg41
I0
sg42
g0
(g7
g2
Ntp850
Rp851
(dp852
g11
I0
sbsg46
g0
(g7
g2
Ntp853
Rp854
(dp855
g11
I21
sbsg50
g63
sg52
g854
sg53
I2
sbag0
(g35
g2
Ntp856
Rp857
(dp858
g12
F1.0
sg39
I0
sg40
I0
sg41
I0
sg42
g0
(g7
g2
Ntp859
Rp860
(dp861
g11
I0
sbsg46
g0
(g7
g2
Ntp862
Rp863
(dp864
g11
I21
sbsg50
g51
sg52
g863
sg53
I15
sbag0
(g35
g2
Ntp865
Rp866
(dp867
g12
F1.0
sg39
I0
sg40
I0
sg41
I0
sg42
g0
(g7
g2
Ntp868
Rp869
(dp870
g11
I0
sbsg46
g0
(g7
g2
Ntp871
Rp872
(dp873
g11
I21
sbsg50
g63
sg52
g872
sg53
I16
sbag0
(g35
g2
Ntp874
Rp875
(dp876
g12
F1.0
sg39
I0
sg40
I0
sg41
I0
sg42
g0
(g7
g2
Ntp877
Rp878
(dp879
g11
I0
sbsg46
g0
(g7
g2
Ntp880
Rp881
(dp882
g11
I21
sbsg50
g63
sg52
g881
sg53
I11
sbag0
(g35
g2
Ntp883
Rp884
(dp885
g12
F1.0
sg39
I0
sg40
I0
sg41
I0
sg42
g0
(g7
g2
Ntp886
Rp887
(dp888
g11
I0
sbsg46
g0
(g7
g2
Ntp889
Rp890
(dp891
g11
I21
sbsg50
g63
sg52
g890
sg53
I1
sbag0
(g35
g2
Ntp892
Rp893
(dp894
g12
F1.0
sg39
I0
sg40
I0
sg41
I0
sg42
g0
(g7
g2
Ntp895
Rp896
(dp897
g11
I0
sbsg46
g0
(g7
g2
Ntp898
Rp899
(dp900
g11
I21
sbsg50
g51
sg52
g899
sg53
I10
sbag0
(g35
g2
Ntp901
Rp902
(dp903
g12
F1.0
sg39
I0
sg40
I0
sg41
I0
sg42
g0
(g7
g2
Ntp904
Rp905
(dp906
g11
I0
sbsg46
g0
(g7
g2
Ntp907
Rp908
(dp909
g11
I21
sbsg50
g51
sg52
g908
sg53
I5
sbag0
(g35
g2
Ntp910
Rp911
(dp912
g12
F1.0
sg39
I0
sg40
I0
sg41
I0
sg42
g0
(g7
g2
Ntp913
Rp914
(dp915
g11
I0
sbsg46
g0
(g7
g2
Ntp916
Rp917
(dp918
g11
I22
sbsg50
g51
sg52
g917
sg53
I9
sbag0
(g35
g2
Ntp919
Rp920
(dp921
g12
F1.0
sg39
I0
sg40
I0
sg41
I0
sg42
g0
(g7
g2
Ntp922
Rp923
(dp924
g11
I0
sbsg46
g0
(g7
g2
Ntp925
Rp926
(dp927
g11
I22
sbsg50
g63
sg52
g926
sg53
I10
sbag0
(g35
g2
Ntp928
Rp929
(dp930
g12
F1.0
sg39
I0
sg40
I0
sg41
I0
sg42
g0
(g7
g2
Ntp931
Rp932
(dp933
g11
I0
sbsg46
g0
(g7
g2
Ntp934
Rp935
(dp936
g11
I22
sbsg50
g63
sg52
g935
sg53
I4
sbag0
(g35
g2
Ntp937
Rp938
(dp939
g12
F1.0
sg39
I0
sg40
I0
sg41
I0
sg42
g0
(g7
g2
Ntp940
Rp941
(dp942
g11
I0
sbsg46
g0
(g7
g2
Ntp943
Rp944
(dp945
g11
I22
sbsg50
g51
sg52
g944
sg53
I11
sbag0
(g35
g2
Ntp946
Rp947
(dp948
g12
F1.0
sg39
I0
sg40
I0
sg41
I0
sg42
g0
(g7
g2
Ntp949
Rp950
(dp951
g11
I0
sbsg46
g0
(g7
g2
Ntp952
Rp953
(dp954
g11
I22
sbsg50
g51
sg52
g953
sg53
I13
sbag0
(g35
g2
Ntp955
Rp956
(dp957
g12
F1.0
sg39
I0
sg40
I0
sg41
I0
sg42
g0
(g7
g2
Ntp958
Rp959
(dp960
g11
I0
sbsg46
g0
(g7
g2
Ntp961
Rp962
(dp963
g11
I22
sbsg50
g51
sg52
g962
sg53
I2
sbag0
(g35
g2
Ntp964
Rp965
(dp966
g12
F1.0
sg39
I0
sg40
I0
sg41
I0
sg42
g0
(g7
g2
Ntp967
Rp968
(dp969
g11
I0
sbsg46
g0
(g7
g2
Ntp970
Rp971
(dp972
g11
I22
sbsg50
g51
sg52
g971
sg53
I10
sbag0
(g35
g2
Ntp973
Rp974
(dp975
g12
F1.0
sg39
I0
sg40
I0
sg41
I0
sg42
g0
(g7
g2
Ntp976
Rp977
(dp978
g11
I0
sbsg46
g0
(g7
g2
Ntp979
Rp980
(dp981
g11
I22
sbsg50
g51
sg52
g980
sg53
I16
sbag0
(g35
g2
Ntp982
Rp983
(dp984
g12
F1.0
sg39
I0
sg40
I0
sg41
I0
sg42
g0
(g7
g2
Ntp985
Rp986
(dp987
g11
I0
sbsg46
g0
(g7
g2
Ntp988
Rp989
(dp990
g11
I22
sbsg50
g51
sg52
g989
sg53
I1
sbag0
(g35
g2
Ntp991
Rp992
(dp993
g12
F1.0
sg39
I0
sg40
I0
sg41
I0
sg42
g0
(g7
g2
Ntp994
Rp995
(dp996
g11
I0
sbsg46
g0
(g7
g2
Ntp997
Rp998
(dp999
g11
I23
sbsg50
g51
sg52
g998
sg53
I4
sbag0
(g35
g2
Ntp1000
Rp1001
(dp1002
g12
F1.0
sg39
I0
sg40
I0
sg41
I0
sg42
g0
(g7
g2
Ntp1003
Rp1004
(dp1005
g11
I0
sbsg46
g0
(g7
g2
Ntp1006
Rp1007
(dp1008
g11
I23
sbsg50
g63
sg52
g1007
sg53
I2
sbag0
(g35
g2
Ntp1009
Rp1010
(dp1011
g12
F1.0
sg39
I0
sg40
I0
sg41
I0
sg42
g0
(g7
g2
Ntp1012
Rp1013
(dp1014
g11
I0
sbsg46
g0
(g7
g2
Ntp1015
Rp1016
(dp1017
g11
I23
sbsg50
g51
sg52
g1016
sg53
I14
sbag0
(g35
g2
Ntp1018
Rp1019
(dp1020
g12
F1.0
sg39
I0
sg40
I0
sg41
I0
sg42
g0
(g7
g2
Ntp1021
Rp1022
(dp1023
g11
I0
sbsg46
g0
(g7
g2
Ntp1024
Rp1025
(dp1026
g11
I23
sbsg50
g63
sg52
g1025
sg53
I1
sbag0
(g35
g2
Ntp1027
Rp1028
(dp1029
g12
F1.0
sg39
I0
sg40
I0
sg41
I0
sg42
g0
(g7
g2
Ntp1030
Rp1031
(dp1032
g11
I0
sbsg46
g0
(g7
g2
Ntp1033
Rp1034
(dp1035
g11
I23
sbsg50
g63
sg52
g1034
sg53
I8
sbag0
(g35
g2
Ntp1036
Rp1037
(dp1038
g12
F1.0
sg39
I0
sg40
I0
sg41
I0
sg42
g0
(g7
g2
Ntp1039
Rp1040
(dp1041
g11
I0
sbsg46
g0
(g7
g2
Ntp1042
Rp1043
(dp1044
g11
I23
sbsg50
g51
sg52
g1043
sg53
I2
sbag0
(g35
g2
Ntp1045
Rp1046
(dp1047
g12
F1.0
sg39
I0
sg40
I0
sg41
I0
sg42
g0
(g7
g2
Ntp1048
Rp1049
(dp1050
g11
I0
sbsg46
g0
(g7
g2
Ntp1051
Rp1052
(dp1053
g11
I24
sbsg50
g63
sg52
g1052
sg53
I13
sbag0
(g35
g2
Ntp1054
Rp1055
(dp1056
g12
F1.0
sg39
I0
sg40
I0
sg41
I0
sg42
g0
(g7
g2
Ntp1057
Rp1058
(dp1059
g11
I0
sbsg46
g0
(g7
g2
Ntp1060
Rp1061
(dp1062
g11
I24
sbsg50
g63
sg52
g1061
sg53
I2
sbag0
(g35
g2
Ntp1063
Rp1064
(dp1065
g12
F1.0
sg39
I0
sg40
I0
sg41
I0
sg42
g0
(g7
g2
Ntp1066
Rp1067
(dp1068
g11
I0
sbsg46
g0
(g7
g2
Ntp1069
Rp1070
(dp1071
g11
I24
sbsg50
g63
sg52
g1070
sg53
I3
sbag0
(g35
g2
Ntp1072
Rp1073
(dp1074
g12
F1.0
sg39
I0
sg40
I0
sg41
I0
sg42
g0
(g7
g2
Ntp1075
Rp1076
(dp1077
g11
I0
sbsg46
g0
(g7
g2
Ntp1078
Rp1079
(dp1080
g11
I25
sbsg50
g51
sg52
g1079
sg53
I2
sbag0
(g35
g2
Ntp1081
Rp1082
(dp1083
g12
F1.0
sg39
I0
sg40
I0
sg41
I0
sg42
g0
(g7
g2
Ntp1084
Rp1085
(dp1086
g11
I0
sbsg46
g0
(g7
g2
Ntp1087
Rp1088
(dp1089
g11
I25
sbsg50
g63
sg52
g1088
sg53
I15
sbag0
(g35
g2
Ntp1090
Rp1091
(dp1092
g12
F1.0
sg39
I0
sg40
I0
sg41
I0
sg42
g0
(g7
g2
Ntp1093
Rp1094
(dp1095
g11
I0
sbsg46
g0
(g7
g2
Ntp1096
Rp1097
(dp1098
g11
I25
sbsg50
g63
sg52
g1097
sg53
I7
sbag0
(g35
g2
Ntp1099
Rp1100
(dp1101
g12
F1.0
sg39
I0
sg40
I0
sg41
I0
sg42
g0
(g7
g2
Ntp1102
Rp1103
(dp1104
g11
I0
sbsg46
g0
(g7
g2
Ntp1105
Rp1106
(dp1107
g11
I26
sbsg50
g51
sg52
g1106
sg53
I1
sbag0
(g35
g2
Ntp1108
Rp1109
(dp1110
g12
F1.0
sg39
I0
sg40
I0
sg41
I0
sg42
g0
(g7
g2
Ntp1111
Rp1112
(dp1113
g11
I0
sbsg46
g0
(g7
g2
Ntp1114
Rp1115
(dp1116
g11
I26
sbsg50
g51
sg52
g1115
sg53
I15
sbag0
(g35
g2
Ntp1117
Rp1118
(dp1119
g12
F1.0
sg39
I0
sg40
I0
sg41
I0
sg42
g0
(g7
g2
Ntp1120
Rp1121
(dp1122
g11
I0
sbsg46
g0
(g7
g2
Ntp1123
Rp1124
(dp1125
g11
I26
sbsg50
g51
sg52
g1124
sg53
I8
sbag0
(g35
g2
Ntp1126
Rp1127
(dp1128
g12
F1.0
sg39
I0
sg40
I0
sg41
I0
sg42
g0
(g7
g2
Ntp1129
Rp1130
(dp1131
g11
I0
sbsg46
g0
(g7
g2
Ntp1132
Rp1133
(dp1134
g11
I26
sbsg50
g63
sg52
g1133
sg53
I8
sbag0
(g35
g2
Ntp1135
Rp1136
(dp1137
g12
F1.0
sg39
I0
sg40
I0
sg41
I0
sg42
g0
(g7
g2
Ntp1138
Rp1139
(dp1140
g11
I0
sbsg46
g0
(g7
g2
Ntp1141
Rp1142
(dp1143
g11
I27
sbsg50
g63
sg52
g1142
sg53
I15
sbag0
(g35
g2
Ntp1144
Rp1145
(dp1146
g12
F1.0
sg39
I0
sg40
I0
sg41
I0
sg42
g0
(g7
g2
Ntp1147
Rp1148
(dp1149
g11
I0
sbsg46
g0
(g7
g2
Ntp1150
Rp1151
(dp1152
g11
I27
sbsg50
g51
sg52
g1151
sg53
I3
sbag0
(g35
g2
Ntp1153
Rp1154
(dp1155
g12
F1.0
sg39
I0
sg40
I0
sg41
I0
sg42
g0
(g7
g2
Ntp1156
Rp1157
(dp1158
g11
I0
sbsg46
g0
(g7
g2
Ntp1159
Rp1160
(dp1161
g11
I27
sbsg50
g51
sg52
g1160
sg53
I15
sbag0
(g35
g2
Ntp1162
Rp1163
(dp1164
g12
F1.0
sg39
I0
sg40
I0
sg41
I0
sg42
g0
(g7
g2
Ntp1165
Rp1166
(dp1167
g11
I0
sbsg46
g0
(g7
g2
Ntp1168
Rp1169
(dp1170
g11
I27
sbsg50
g63
sg52
g1169
sg53
I14
sbag0
(g35
g2
Ntp1171
Rp1172
(dp1173
g12
F1.0
sg39
I0
sg40
I0
sg41
I0
sg42
g0
(g7
g2
Ntp1174
Rp1175
(dp1176
g11
I0
sbsg46
g0
(g7
g2
Ntp1177
Rp1178
(dp1179
g11
I28
sbsg50
g63
sg52
g1178
sg53
I2
sbag0
(g35
g2
Ntp1180
Rp1181
(dp1182
g12
F1.0
sg39
I0
sg40
I0
sg41
I0
sg42
g0
(g7
g2
Ntp1183
Rp1184
(dp1185
g11
I0
sbsg46
g0
(g7
g2
Ntp1186
Rp1187
(dp1188
g11
I28
sbsg50
g63
sg52
g1187
sg53
I3
sbag0
(g35
g2
Ntp1189
Rp1190
(dp1191
g12
F1.0
sg39
I0
sg40
I0
sg41
I0
sg42
g0
(g7
g2
Ntp1192
Rp1193
(dp1194
g11
I0
sbsg46
g0
(g7
g2
Ntp1195
Rp1196
(dp1197
g11
I28
sbsg50
g51
sg52
g1196
sg53
I8
sbag0
(g35
g2
Ntp1198
Rp1199
(dp1200
g12
F1.0
sg39
I0
sg40
I0
sg41
I0
sg42
g0
(g7
g2
Ntp1201
Rp1202
(dp1203
g11
I0
sbsg46
g0
(g7
g2
Ntp1204
Rp1205
(dp1206
g11
I29
sbsg50
g51
sg52
g1205
sg53
I13
sbag0
(g35
g2
Ntp1207
Rp1208
(dp1209
g12
F1.0
sg39
I0
sg40
I0
sg41
I0
sg42
g0
(g7
g2
Ntp1210
Rp1211
(dp1212
g11
I0
sbsg46
g0
(g7
g2
Ntp1213
Rp1214
(dp1215
g11
I29
sbsg50
g51
sg52
g1214
sg53
I2
sbag0
(g35
g2
Ntp1216
Rp1217
(dp1218
g12
F1.0
sg39
I0
sg40
I0
sg41
I0
sg42
g0
(g7
g2
Ntp1219
Rp1220
(dp1221
g11
I0
sbsg46
g0
(g7
g2
Ntp1222
Rp1223
(dp1224
g11
I29
sbsg50
g63
sg52
g1223
sg53
I1
sbag0
(g35
g2
Ntp1225
Rp1226
(dp1227
g12
F1.0
sg39
I0
sg40
I0
sg41
I0
sg42
g0
(g7
g2
Ntp1228
Rp1229
(dp1230
g11
I0
sbsg46
g0
(g7
g2
Ntp1231
Rp1232
(dp1233
g11
I30
sbsg50
g51
sg52
g1232
sg53
I7
sbag0
(g35
g2
Ntp1234
Rp1235
(dp1236
g12
F1.0
sg39
I0
sg40
I0
sg41
I0
sg42
g0
(g7
g2
Ntp1237
Rp1238
(dp1239
g11
I0
sbsg46
g0
(g7
g2
Ntp1240
Rp1241
(dp1242
g11
I30
sbsg50
g51
sg52
g1241
sg53
I3
sbag0
(g35
g2
Ntp1243
Rp1244
(dp1245
g12
F1.0
sg39
I0
sg40
I0
sg41
I0
sg42
g0
(g7
g2
Ntp1246
Rp1247
(dp1248
g11
I0
sbsg46
g0
(g7
g2
Ntp1249
Rp1250
(dp1251
g11
I31
sbsg50
g51
sg52
g1250
sg53
I1
sbag0
(g35
g2
Ntp1252
Rp1253
(dp1254
g12
F1.0
sg39
I0
sg40
I0
sg41
I0
sg42
g0
(g7
g2
Ntp1255
Rp1256
(dp1257
g11
I0
sbsg46
g0
(g7
g2
Ntp1258
Rp1259
(dp1260
g11
I31
sbsg50
g51
sg52
g1259
sg53
I14
sbag0
(g35
g2
Ntp1261
Rp1262
(dp1263
g12
F1.0
sg39
I0
sg40
I0
sg41
I0
sg42
g0
(g7
g2
Ntp1264
Rp1265
(dp1266
g11
I0
sbsg46
g0
(g7
g2
Ntp1267
Rp1268
(dp1269
g11
I33
sbsg50
g63
sg52
g1268
sg53
I13
sbag0
(g35
g2
Ntp1270
Rp1271
(dp1272
g12
F1.0
sg39
I0
sg40
I0
sg41
I0
sg42
g0
(g7
g2
Ntp1273
Rp1274
(dp1275
g11
I0
sbsg46
g0
(g7
g2
Ntp1276
Rp1277
(dp1278
g11
I33
sbsg50
g63
sg52
g1277
sg53
I7
sbag0
(g35
g2
Ntp1279
Rp1280
(dp1281
g12
F1.0
sg39
I0
sg40
I0
sg41
I0
sg42
g0
(g7
g2
Ntp1282
Rp1283
(dp1284
g11
I0
sbsg46
g0
(g7
g2
Ntp1285
Rp1286
(dp1287
g11
I33
sbsg50
g51
sg52
g1286
sg53
I13
sbag0
(g35
g2
Ntp1288
Rp1289
(dp1290
g12
F1.0
sg39
I0
sg40
I0
sg41
I0
sg42
g0
(g7
g2
Ntp1291
Rp1292
(dp1293
g11
I0
sbsg46
g0
(g7
g2
Ntp1294
Rp1295
(dp1296
g11
I33
sbsg50
g51
sg52
g1295
sg53
I7
sbag0
(g35
g2
Ntp1297
Rp1298
(dp1299
g12
F1.0
sg39
I0
sg40
I0
sg41
I0
sg42
g0
(g7
g2
Ntp1300
Rp1301
(dp1302
g11
I0
sbsg46
g0
(g7
g2
Ntp1303
Rp1304
(dp1305
g11
I33
sbsg50
g63
sg52
g1304
sg53
I1
sbag0
(g35
g2
Ntp1306
Rp1307
(dp1308
g12
F1.0
sg39
I0
sg40
I0
sg41
I0
sg42
g0
(g7
g2
Ntp1309
Rp1310
(dp1311
g11
I0
sbsg46
g0
(g7
g2
Ntp1312
Rp1313
(dp1314
g11
I34
sbsg50
g51
sg52
g1313
sg53
I1
sbag0
(g35
g2
Ntp1315
Rp1316
(dp1317
g12
F1.0
sg39
I0
sg40
I0
sg41
I0
sg42
g0
(g7
g2
Ntp1318
Rp1319
(dp1320
g11
I0
sbsg46
g0
(g7
g2
Ntp1321
Rp1322
(dp1323
g11
I35
sbsg50
g63
sg52
g1322
sg53
I7
sbag0
(g35
g2
Ntp1324
Rp1325
(dp1326
g12
F1.0
sg39
I0
sg40
I0
sg41
I0
sg42
g0
(g7
g2
Ntp1327
Rp1328
(dp1329
g11
I0
sbsg46
g0
(g7
g2
Ntp1330
Rp1331
(dp1332
g11
I36
sbsg50
g63
sg52
g1331
sg53
I1
sbag0
(g35
g2
Ntp1333
Rp1334
(dp1335
g12
F1.0
sg39
I0
sg40
I0
sg41
I0
sg42
g0
(g7
g2
Ntp1336
Rp1337
(dp1338
g11
I0
sbsg46
g0
(g7
g2
Ntp1339
Rp1340
(dp1341
g11
I37
sbsg50
g51
sg52
g1340
sg53
I1
sbag0
(g35
g2
Ntp1342
Rp1343
(dp1344
g12
F1.0
sg39
I0
sg40
I0
sg41
I0
sg42
g0
(g7
g2
Ntp1345
Rp1346
(dp1347
g11
I0
sbsg46
g0
(g7
g2
Ntp1348
Rp1349
(dp1350
g11
I38
sbsg50
g63
sg52
g1349
sg53
I1
sbag0
(g35
g2
Ntp1351
Rp1352
(dp1353
g12
F1.0
sg39
I0
sg40
I0
sg41
I0
sg42
g0
(g7
g2
Ntp1354
Rp1355
(dp1356
g11
I0
sbsg46
g0
(g7
g2
Ntp1357
Rp1358
(dp1359
g11
I39
sbsg50
g51
sg52
g1358
sg53
I1
sbag0
(g35
g2
Ntp1360
Rp1361
(dp1362
g12
F1.0
sg39
I0
sg40
I0
sg41
I0
sg42
g0
(g7
g2
Ntp1363
Rp1364
(dp1365
g11
I0
sbsg46
g0
(g7
g2
Ntp1366
Rp1367
(dp1368
g11
I39
sbsg50
g51
sg52
g1367
sg53
I7
sbag0
(g35
g2
Ntp1369
Rp1370
(dp1371
g12
F1.0
sg39
I0
sg40
I0
sg41
I0
sg42
g0
(g7
g2
Ntp1372
Rp1373
(dp1374
g11
I0
sbsg46
g0
(g7
g2
Ntp1375
Rp1376
(dp1377
g11
I41
sbsg50
g51
sg52
g1376
sg53
I0
sbasS'name'
p1378
Vfaerie-sweep-LEFT
p1379
sb.