ccopy_reg
_reconstructor
p0
(cparclasses
ControlList
p1
c__builtin__
object
p2
Ntp3
Rp4
(dp5
S'ref_beat_period'
p6
g0
(cparclasses
TimeCode
p7
g2
Ntp8
Rp9
(dp10
S'total_frames'
p11
I0
sbsS'scale_factor'
p12
F1.0
sS'eof'
p13
I00
sS'beat_period'
p14
g9
sS'looping'
p15
I00
sS'cur_state'
p16
(lp17
I0
aI0
aI0
aI0
aI0
aI0
aI0
aI0
aI0
aI0
aI0
aI0
aI0
aI0
aI0
aI0
aI0
aI0
aI0
aI0
aI0
aI0
aI0
aI0
aI0
asS'start_time'
p18
g0
(g7
g2
Ntp19
Rp20
(dp21
g11
L39339036506L
sbsS'first_beat'
p22
g0
(g7
g2
Ntp23
Rp24
(dp25
g11
I0
sbsS'next_event'
p26
I38
sS'cleanup'
p27
(lp28
sS'deflevel'
p29
I0
sS'ref_first_beat'
p30
g24
sS'defchannel'
p31
I0
sS'scale_pending'
p32
I00
sS'events'
p33
(lp34
g0
(cparclasses
ControlEvent
p35
g2
Ntp36
Rp37
(dp38
g12
F1.0
sS'level'
p39
I0
sS'sequence'
p40
I0
sS'value'
p41
I0
sS'duration'
p42
g0
(g7
g2
Ntp43
Rp44
(dp45
g11
I0
sbsS'time'
p46
g0
(g7
g2
Ntp47
Rp48
(dp49
g11
I0
sbsS'action'
p50
S'off'
p51
sS'ref_time'
p52
g48
sS'channel'
p53
I0
sbag0
(g35
g2
Ntp54
Rp55
(dp56
g12
F1.0
sg39
I0
sg40
I0
sg41
I0
sg42
g0
(g7
g2
Ntp57
Rp58
(dp59
g11
I0
sbsg46
g0
(g7
g2
Ntp60
Rp61
(dp62
g11
I0
sbsg50
S'on'
p63
sg52
g61
sg53
I18
sbag0
(g35
g2
Ntp64
Rp65
(dp66
g12
F1.0
sg39
I0
sg40
I0
sg41
I0
sg42
g0
(g7
g2
Ntp67
Rp68
(dp69
g11
I0
sbsg46
g0
(g7
g2
Ntp70
Rp71
(dp72
g11
I0
sbsg50
g63
sg52
g71
sg53
I6
sbag0
(g35
g2
Ntp73
Rp74
(dp75
g12
F1.0
sg39
I0
sg40
I0
sg41
I0
sg42
g0
(g7
g2
Ntp76
Rp77
(dp78
g11
I0
sbsg46
g0
(g7
g2
Ntp79
Rp80
(dp81
g11
I1
sbsg50
g63
sg52
g80
sg53
I12
sbag0
(g35
g2
Ntp82
Rp83
(dp84
g12
F1.0
sg39
I0
sg40
I0
sg41
I0
sg42
g0
(g7
g2
Ntp85
Rp86
(dp87
g11
I0
sbsg46
g0
(g7
g2
Ntp88
Rp89
(dp90
g11
I1
sbsg50
g51
sg52
g89
sg53
I18
sbag0
(g35
g2
Ntp91
Rp92
(dp93
g12
F1.0
sg39
I0
sg40
I0
sg41
I0
sg42
g0
(g7
g2
Ntp94
Rp95
(dp96
g11
I0
sbsg46
g0
(g7
g2
Ntp97
Rp98
(dp99
g11
I2
sbsg50
g63
sg52
g98
sg53
I17
sbag0
(g35
g2
Ntp100
Rp101
(dp102
g12
F1.0
sg39
I0
sg40
I0
sg41
I0
sg42
g0
(g7
g2
Ntp103
Rp104
(dp105
g11
I0
sbsg46
g0
(g7
g2
Ntp106
Rp107
(dp108
g11
I2
sbsg50
g51
sg52
g107
sg53
I6
sbag0
(g35
g2
Ntp109
Rp110
(dp111
g12
F1.0
sg39
I0
sg40
I0
sg41
I0
sg42
g0
(g7
g2
Ntp112
Rp113
(dp114
g11
I0
sbsg46
g0
(g7
g2
Ntp115
Rp116
(dp117
g11
I3
sbsg50
g63
sg52
g116
sg53
I5
sbag0
(g35
g2
Ntp118
Rp119
(dp120
g12
F1.0
sg39
I0
sg40
I0
sg41
I0
sg42
g0
(g7
g2
Ntp121
Rp122
(dp123
g11
I0
sbsg46
g0
(g7
g2
Ntp124
Rp125
(dp126
g11
I3
sbsg50
g51
sg52
g125
sg53
I12
sbag0
(g35
g2
Ntp127
Rp128
(dp129
g12
F1.0
sg39
I0
sg40
I0
sg41
I0
sg42
g0
(g7
g2
Ntp130
Rp131
(dp132
g11
I0
sbsg46
g0
(g7
g2
Ntp133
Rp134
(dp135
g11
I4
sbsg50
g63
sg52
g134
sg53
I11
sbag0
(g35
g2
Ntp136
Rp137
(dp138
g12
F1.0
sg39
I0
sg40
I0
sg41
I0
sg42
g0
(g7
g2
Ntp139
Rp140
(dp141
g11
I0
sbsg46
g0
(g7
g2
Ntp142
Rp143
(dp144
g11
I4
sbsg50
g51
sg52
g143
sg53
I17
sbag0
(g35
g2
Ntp145
Rp146
(dp147
g12
F1.0
sg39
I0
sg40
I0
sg41
I0
sg42
g0
(g7
g2
Ntp148
Rp149
(dp150
g11
I0
sbsg46
g0
(g7
g2
Ntp151
Rp152
(dp153
g11
I4
sbsg50
g63
sg52
g152
sg53
I16
sbag0
(g35
g2
Ntp154
Rp155
(dp156
g12
F1.0
sg39
I0
sg40
I0
sg41
I0
sg42
g0
(g7
g2
Ntp157
Rp158
(dp159
g11
I0
sbsg46
g0
(g7
g2
Ntp160
Rp161
(dp162
g11
I5
sbsg50
g51
sg52
g161
sg53
I5
sbag0
(g35
g2
Ntp163
Rp164
(dp165
g12
F1.0
sg39
I0
sg40
I0
sg41
I0
sg42
g0
(g7
g2
Ntp166
Rp167
(dp168
g11
I0
sbsg46
g0
(g7
g2
Ntp169
Rp170
(dp171
g11
I5
sbsg50
g63
sg52
g170
sg53
I4
sbag0
(g35
g2
Ntp172
Rp173
(dp174
g12
F1.0
sg39
I0
sg40
I0
sg41
I0
sg42
g0
(g7
g2
Ntp175
Rp176
(dp177
g11
I0
sbsg46
g0
(g7
g2
Ntp178
Rp179
(dp180
g11
I5
sbsg50
g51
sg52
g179
sg53
I11
sbag0
(g35
g2
Ntp181
Rp182
(dp183
g12
F1.0
sg39
I0
sg40
I0
sg41
I0
sg42
g0
(g7
g2
Ntp184
Rp185
(dp186
g11
I0
sbsg46
g0
(g7
g2
Ntp187
Rp188
(dp189
g11
I6
sbsg50
g63
sg52
g188
sg53
I10
sbag0
(g35
g2
Ntp190
Rp191
(dp192
g12
F1.0
sg39
I0
sg40
I0
sg41
I0
sg42
g0
(g7
g2
Ntp193
Rp194
(dp195
g11
I0
sbsg46
g0
(g7
g2
Ntp196
Rp197
(dp198
g11
I6
sbsg50
g51
sg52
g197
sg53
I16
sbag0
(g35
g2
Ntp199
Rp200
(dp201
g12
F1.0
sg39
I0
sg40
I0
sg41
I0
sg42
g0
(g7
g2
Ntp202
Rp203
(dp204
g11
I0
sbsg46
g0
(g7
g2
Ntp205
Rp206
(dp207
g11
I7
sbsg50
g63
sg52
g206
sg53
I15
sbag0
(g35
g2
Ntp208
Rp209
(dp210
g12
F1.0
sg39
I0
sg40
I0
sg41
I0
sg42
g0
(g7
g2
Ntp211
Rp212
(dp213
g11
I0
sbsg46
g0
(g7
g2
Ntp214
Rp215
(dp216
g11
I7
sbsg50
g51
sg52
g215
sg53
I4
sbag0
(g35
g2
Ntp217
Rp218
(dp219
g12
F1.0
sg39
I0
sg40
I0
sg41
I0
sg42
g0
(g7
g2
Ntp220
Rp221
(dp222
g11
I0
sbsg46
g0
(g7
g2
Ntp223
Rp224
(dp225
g11
I7
sbsg50
g63
sg52
g224
sg53
I3
sbag0
(g35
g2
Ntp226
Rp227
(dp228
g12
F1.0
sg39
I0
sg40
I0
sg41
I0
sg42
g0
(g7
g2
Ntp229
Rp230
(dp231
g11
I0
sbsg46
g0
(g7
g2
Ntp232
Rp233
(dp234
g11
I8
sbsg50
g51
sg52
g233
sg53
I10
sbag0
(g35
g2
Ntp235
Rp236
(dp237
g12
F1.0
sg39
I0
sg40
I0
sg41
I0
sg42
g0
(g7
g2
Ntp238
Rp239
(dp240
g11
I0
sbsg46
g0
(g7
g2
Ntp241
Rp242
(dp243
g11
I8
sbsg50
g63
sg52
g242
sg53
I9
sbag0
(g35
g2
Ntp244
Rp245
(dp246
g12
F1.0
sg39
I0
sg40
I0
sg41
I0
sg42
g0
(g7
g2
Ntp247
Rp248
(dp249
g11
I0
sbsg46
g0
(g7
g2
Ntp250
Rp251
(dp252
g11
I9
sbsg50
g51
sg52
g251
sg53
I15
sbag0
(g35
g2
Ntp253
Rp254
(dp255
g12
F1.0
sg39
I0
sg40
I0
sg41
I0
sg42
g0
(g7
g2
Ntp256
Rp257
(dp258
g11
I0
sbsg46
g0
(g7
g2
Ntp259
Rp260
(dp261
g11
I9
sbsg50
g63
sg52
g260
sg53
I14
sbag0
(g35
g2
Ntp262
Rp263
(dp264
g12
F1.0
sg39
I0
sg40
I0
sg41
I0
sg42
g0
(g7
g2
Ntp265
Rp266
(dp267
g11
I0
sbsg46
g0
(g7
g2
Ntp268
Rp269
(dp270
g11
I9
sbsg50
g51
sg52
g269
sg53
I3
sbag0
(g35
g2
Ntp271
Rp272
(dp273
g12
F1.0
sg39
I0
sg40
I0
sg41
I0
sg42
g0
(g7
g2
Ntp274
Rp275
(dp276
g11
I0
sbsg46
g0
(g7
g2
Ntp277
Rp278
(dp279
g11
I10
sbsg50
g63
sg52
g278
sg53
I2
sbag0
(g35
g2
Ntp280
Rp281
(dp282
g12
F1.0
sg39
I0
sg40
I0
sg41
I0
sg42
g0
(g7
g2
Ntp283
Rp284
(dp285
g11
I0
sbsg46
g0
(g7
g2
Ntp286
Rp287
(dp288
g11
I10
sbsg50
g51
sg52
g287
sg53
I9
sbag0
(g35
g2
Ntp289
Rp290
(dp291
g12
F1.0
sg39
I0
sg40
I0
sg41
I0
sg42
g0
(g7
g2
Ntp292
Rp293
(dp294
g11
I0
sbsg46
g0
(g7
g2
Ntp295
Rp296
(dp297
g11
I11
sbsg50
g63
sg52
g296
sg53
I8
sbag0
(g35
g2
Ntp298
Rp299
(dp300
g12
F1.0
sg39
I0
sg40
I0
sg41
I0
sg42
g0
(g7
g2
Ntp301
Rp302
(dp303
g11
I0
sbsg46
g0
(g7
g2
Ntp304
Rp305
(dp306
g11
I11
sbsg50
g51
sg52
g305
sg53
I14
sbag0
(g35
g2
Ntp307
Rp308
(dp309
g12
F1.0
sg39
I0
sg40
I0
sg41
I0
sg42
g0
(g7
g2
Ntp310
Rp311
(dp312
g11
I0
sbsg46
g0
(g7
g2
Ntp313
Rp314
(dp315
g11
I11
sbsg50
g63
sg52
g314
sg53
I13
sbag0
(g35
g2
Ntp316
Rp317
(dp318
g12
F1.0
sg39
I0
sg40
I0
sg41
I0
sg42
g0
(g7
g2
Ntp319
Rp320
(dp321
g11
I0
sbsg46
g0
(g7
g2
Ntp322
Rp323
(dp324
g11
I12
sbsg50
g51
sg52
g323
sg53
I2
sbag0
(g35
g2
Ntp325
Rp326
(dp327
g12
F1.0
sg39
I0
sg40
I0
sg41
I0
sg42
g0
(g7
g2
Ntp328
Rp329
(dp330
g11
I0
sbsg46
g0
(g7
g2
Ntp331
Rp332
(dp333
g11
I12
sbsg50
g63
sg52
g332
sg53
I1
sbag0
(g35
g2
Ntp334
Rp335
(dp336
g12
F1.0
sg39
I0
sg40
I0
sg41
I0
sg42
g0
(g7
g2
Ntp337
Rp338
(dp339
g11
I0
sbsg46
g0
(g7
g2
Ntp340
Rp341
(dp342
g11
I13
sbsg50
g51
sg52
g341
sg53
I8
sbag0
(g35
g2
Ntp343
Rp344
(dp345
g12
F1.0
sg39
I0
sg40
I0
sg41
I0
sg42
g0
(g7
g2
Ntp346
Rp347
(dp348
g11
I0
sbsg46
g0
(g7
g2
Ntp349
Rp350
(dp351
g11
I13
sbsg50
g63
sg52
g350
sg53
I7
sbag0
(g35
g2
Ntp352
Rp353
(dp354
g12
F1.0
sg39
I0
sg40
I0
sg41
I0
sg42
g0
(g7
g2
Ntp355
Rp356
(dp357
g11
I0
sbsg46
g0
(g7
g2
Ntp358
Rp359
(dp360
g11
I13
sbsg50
g51
sg52
g359
sg53
I13
sbag0
(g35
g2
Ntp361
Rp362
(dp363
g12
F1.0
sg39
I0
sg40
I0
sg41
I0
sg42
g0
(g7
g2
Ntp364
Rp365
(dp366
g11
I0
sbsg46
g0
(g7
g2
Ntp367
Rp368
(dp369
g11
I14
sbsg50
g51
sg52
g368
sg53
I1
sbag0
(g35
g2
Ntp370
Rp371
(dp372
g12
F1.0
sg39
I0
sg40
I0
sg41
I0
sg42
g0
(g7
g2
Ntp373
Rp374
(dp375
g11
I0
sbsg46
g0
(g7
g2
Ntp376
Rp377
(dp378
g11
I15
sbsg50
g51
sg52
g377
sg53
I7
sbag0
(g35
g2
Ntp379
Rp380
(dp381
g12
F1.0
sg39
I0
sg40
I0
sg41
I0
sg42
g0
(g7
g2
Ntp382
Rp383
(dp384
g11
I0
sbsg46
g0
(g7
g2
Ntp385
Rp386
(dp387
g11
I16
sbsg50
g51
sg52
g386
sg53
I0
sbasS'name'
p388
VLL
p389
sb.